target datalayout = "e-m:e-p270:32:32-p271:32:32-p272:64:64-i64:64-i128:128-f80:128-n8:16:32:64-S128"
target triple = "x86_64-pc-linux-gnu"

%struct.ewah_bitmap = type { ptr, i64, i64, i64, ptr }

@.str = private unnamed_addr constant [27 x i8] c"size_t overflow: %lu * %lu\00", align 1

; Function Attrs: inlinehint nounwind uwtable
define internal i64 @st_mult(i64 noundef %0, i64 noundef %1) #2 {
  %3 = alloca i64, align 8
  %4 = alloca i64, align 8
  store i64 %0, ptr %3, align 8, !tbaa !11
  store i64 %1, ptr %4, align 8, !tbaa !11
  %5 = load i64, ptr %3, align 8, !tbaa !11
  %6 = icmp ne i64 %5, 0
  br i1 %6, label %7, label %15

7:                                                ; preds = %2
  %8 = load i64, ptr %4, align 8, !tbaa !11
  %9 = load i64, ptr %3, align 8, !tbaa !11
  %10 = udiv i64 -1, %9
  %11 = icmp ugt i64 %8, %10
  br i1 %11, label %12, label %15

12:                                               ; preds = %7
  %13 = load i64, ptr %3, align 8, !tbaa !11
  %14 = load i64, ptr %4, align 8, !tbaa !11
  call void (ptr, ...) @die(ptr noundef @.str, i64 noundef %13, i64 noundef %14) #8
  unreachable

15:                                               ; preds = %7, %2
  %16 = load i64, ptr %3, align 8, !tbaa !11
  %17 = load i64, ptr %4, align 8, !tbaa !11
  %18 = mul i64 %16, %17
  ret i64 %18
}

; Function Attrs: inlinehint nounwind uwtable
define internal void @buffer_grow(ptr noundef %0, i64 noundef %1) #2 {
  %3 = alloca ptr, align 8
  %4 = alloca i64, align 8
  %5 = alloca i64, align 8
  store ptr %0, ptr %3, align 8, !tbaa !4
  store i64 %1, ptr %4, align 8, !tbaa !11
  call void @llvm.lifetime.start.p0(i64 8, ptr %5) #7
  %6 = load ptr, ptr %3, align 8, !tbaa !4
  %7 = getelementptr inbounds nuw %struct.ewah_bitmap, ptr %6, i32 0, i32 4
  %8 = load ptr, ptr %7, align 8, !tbaa !16
  %9 = load ptr, ptr %3, align 8, !tbaa !4
  %10 = getelementptr inbounds nuw %struct.ewah_bitmap, ptr %9, i32 0, i32 0
  %11 = load ptr, ptr %10, align 8, !tbaa !21
  %12 = ptrtoint ptr %8 to i64
  %13 = ptrtoint ptr %11 to i64
  %14 = sub i64 %12, %13
  store i64 %14, ptr %5, align 8, !tbaa !11
  br label %15

15:                                               ; preds = %2
  %16 = load i64, ptr %4, align 8, !tbaa !11
  %17 = load ptr, ptr %3, align 8, !tbaa !4
  %18 = getelementptr inbounds nuw %struct.ewah_bitmap, ptr %17, i32 0, i32 2
  %19 = load i64, ptr %18, align 8, !tbaa !23
  %20 = icmp ugt i64 %16, %19
  br i1 %20, label %21, label %54

21:                                               ; preds = %15
  %22 = load ptr, ptr %3, align 8, !tbaa !4
  %23 = getelementptr inbounds nuw %struct.ewah_bitmap, ptr %22, i32 0, i32 2
  %24 = load i64, ptr %23, align 8, !tbaa !23
  %25 = add i64 %24, 16
  %26 = mul i64 %25, 3
  %27 = udiv i64 %26, 2
  %28 = load i64, ptr %4, align 8, !tbaa !11
  %29 = icmp ult i64 %27, %28
  br i1 %29, label %30, label %34

30:                                               ; preds = %21
  %31 = load i64, ptr %4, align 8, !tbaa !11
  %32 = load ptr, ptr %3, align 8, !tbaa !4
  %33 = getelementptr inbounds nuw %struct.ewah_bitmap, ptr %32, i32 0, i32 2
  store i64 %31, ptr %33, align 8, !tbaa !23
  br label %43

34:                                               ; preds = %21
  %35 = load ptr, ptr %3, align 8, !tbaa !4
  %36 = getelementptr inbounds nuw %struct.ewah_bitmap, ptr %35, i32 0, i32 2
  %37 = load i64, ptr %36, align 8, !tbaa !23
  %38 = add i64 %37, 16
  %39 = mul i64 %38, 3
  %40 = udiv i64 %39, 2
  %41 = load ptr, ptr %3, align 8, !tbaa !4
  %42 = getelementptr inbounds nuw %struct.ewah_bitmap, ptr %41, i32 0, i32 2
  store i64 %40, ptr %42, align 8, !tbaa !23
  br label %43

43:                                               ; preds = %34, %30
  %44 = load ptr, ptr %3, align 8, !tbaa !4
  %45 = getelementptr inbounds nuw %struct.ewah_bitmap, ptr %44, i32 0, i32 0
  %46 = load ptr, ptr %45, align 8, !tbaa !21
  %47 = load ptr, ptr %3, align 8, !tbaa !4
  %48 = getelementptr inbounds nuw %struct.ewah_bitmap, ptr %47, i32 0, i32 2
  %49 = load i64, ptr %48, align 8, !tbaa !23
  %50 = call i64 @st_mult(i64 noundef 8, i64 noundef %49)
  %51 = call ptr @xrealloc(ptr noundef %46, i64 noundef %50)
  %52 = load ptr, ptr %3, align 8, !tbaa !4
  %53 = getelementptr inbounds nuw %struct.ewah_bitmap, ptr %52, i32 0, i32 0
  store ptr %51, ptr %53, align 8, !tbaa !21
  br label %54

54:                                               ; preds = %43, %15
  br label %55

55:                                               ; preds = %54
  br label %56

56:                                               ; preds = %55
  %57 = load ptr, ptr %3, align 8, !tbaa !4
  %58 = getelementptr inbounds nuw %struct.ewah_bitmap, ptr %57, i32 0, i32 0
  %59 = load ptr, ptr %58, align 8, !tbaa !21
  %60 = load i64, ptr %5, align 8, !tbaa !11
  %61 = udiv i64 %60, 8
  %62 = getelementptr inbounds nuw i64, ptr %59, i64 %61
  %63 = load ptr, ptr %3, align 8, !tbaa !4
  %64 = getelementptr inbounds nuw %struct.ewah_bitmap, ptr %63, i32 0, i32 4
  store ptr %62, ptr %64, align 8, !tbaa !16
  call void @llvm.lifetime.end.p0(i64 8, ptr %5) #7
  ret void
}

; Function Attrs: inlinehint nounwind uwtable
define internal void @buffer_push(ptr noundef %0, i64 noundef %1) #2 {
  %3 = alloca ptr, align 8
  %4 = alloca i64, align 8
  store ptr %0, ptr %3, align 8, !tbaa !4
  store i64 %1, ptr %4, align 8, !tbaa !11
  %5 = load ptr, ptr %3, align 8, !tbaa !4
  %6 = load ptr, ptr %3, align 8, !tbaa !4
  %7 = getelementptr inbounds nuw %struct.ewah_bitmap, ptr %6, i32 0, i32 1
  %8 = load i64, ptr %7, align 8, !tbaa !20
  %9 = add i64 %8, 1
  call void @buffer_grow(ptr noundef %5, i64 noundef %9)
  %10 = load i64, ptr %4, align 8, !tbaa !11
  %11 = load ptr, ptr %3, align 8, !tbaa !4
  %12 = getelementptr inbounds nuw %struct.ewah_bitmap, ptr %11, i32 0, i32 0
  %13 = load ptr, ptr %12, align 8, !tbaa !21
  %14 = load ptr, ptr %3, align 8, !tbaa !4
  %15 = getelementptr inbounds nuw %struct.ewah_bitmap, ptr %14, i32 0, i32 1
  %16 = load i64, ptr %15, align 8, !tbaa !20
  %17 = add i64 %16, 1
  store i64 %17, ptr %15, align 8, !tbaa !20
  %18 = getelementptr inbounds nuw i64, ptr %13, i64 %16
  store i64 %10, ptr %18, align 8, !tbaa !11
  ret void
}

; Function Attrs: nounwind uwtable
define internal void @buffer_push_rlw(ptr noundef %0, i64 noundef %1) #0 {
  %3 = alloca ptr, align 8
  %4 = alloca i64, align 8
  store ptr %0, ptr %3, align 8, !tbaa !4
  store i64 %1, ptr %4, align 8, !tbaa !11
  %5 = load ptr, ptr %3, align 8, !tbaa !4
  %6 = load i64, ptr %4, align 8, !tbaa !11
  call void @buffer_push(ptr noundef %5, i64 noundef %6)
  %7 = load ptr, ptr %3, align 8, !tbaa !4
  %8 = getelementptr inbounds nuw %struct.ewah_bitmap, ptr %7, i32 0, i32 0
  %9 = load ptr, ptr %8, align 8, !tbaa !21
  %10 = load ptr, ptr %3, align 8, !tbaa !4
  %11 = getelementptr inbounds nuw %struct.ewah_bitmap, ptr %10, i32 0, i32 1
  %12 = load i64, ptr %11, align 8, !tbaa !20
  %13 = getelementptr inbounds nuw i64, ptr %9, i64 %12
  %14 = getelementptr inbounds i64, ptr %13, i64 -1
  %15 = load ptr, ptr %3, align 8, !tbaa !4
  %16 = getelementptr inbounds nuw %struct.ewah_bitmap, ptr %15, i32 0, i32 4
  store ptr %14, ptr %16, align 8, !tbaa !16
  ret void
}

; Function Attrs: inlinehint nounwind uwtable
define internal void @rlw_set_running_len(ptr noundef %0, i64 noundef %1) #2 {
  %3 = alloca ptr, align 8
  %4 = alloca i64, align 8
  store ptr %0, ptr %3, align 8, !tbaa !19
  store i64 %1, ptr %4, align 8, !tbaa !11
  %5 = load ptr, ptr %3, align 8, !tbaa !19
  %6 = load i64, ptr %5, align 8, !tbaa !11
  %7 = or i64 %6, 8589934590
  store i64 %7, ptr %5, align 8, !tbaa !11
  %8 = load i64, ptr %4, align 8, !tbaa !11
  %9 = shl i64 %8, 1
  %10 = or i64 %9, -8589934591
  %11 = load ptr, ptr %3, align 8, !tbaa !19
  %12 = load i64, ptr %11, align 8, !tbaa !11
  %13 = and i64 %12, %10
  store i64 %13, ptr %11, align 8, !tbaa !11
  ret void
}

; Function Attrs: inlinehint nounwind uwtable
define internal i32 @rlw_get_run_bit(ptr noundef %0) #2 {
  %2 = alloca ptr, align 8
  store ptr %0, ptr %2, align 8, !tbaa !19
  %3 = load ptr, ptr %2, align 8, !tbaa !19
  %4 = load i64, ptr %3, align 8, !tbaa !11
  %5 = and i64 %4, 1
  %6 = trunc i64 %5 to i32
  ret i32 %6
}

; Function Attrs: inlinehint nounwind uwtable
define internal void @rlw_set_run_bit(ptr noundef %0, i32 noundef %1) #2 {
  %3 = alloca ptr, align 8
  %4 = alloca i32, align 4
  store ptr %0, ptr %3, align 8, !tbaa !19
  store i32 %1, ptr %4, align 4, !tbaa !9
  %5 = load i32, ptr %4, align 4, !tbaa !9
  %6 = icmp ne i32 %5, 0
  br i1 %6, label %7, label %11

7:                                                ; preds = %2
  %8 = load ptr, ptr %3, align 8, !tbaa !19
  %9 = load i64, ptr %8, align 8, !tbaa !11
  %10 = or i64 %9, 1
  store i64 %10, ptr %8, align 8, !tbaa !11
  br label %15

11:                                               ; preds = %2
  %12 = load ptr, ptr %3, align 8, !tbaa !19
  %13 = load i64, ptr %12, align 8, !tbaa !11
  %14 = and i64 %13, -2
  store i64 %14, ptr %12, align 8, !tbaa !11
  br label %15

15:                                               ; preds = %11, %7
  ret void
}

; Function Attrs: inlinehint nounwind uwtable
define internal i64 @rlw_get_running_len(ptr noundef %0) #2 {
  %2 = alloca ptr, align 8
  store ptr %0, ptr %2, align 8, !tbaa !19
  %3 = load ptr, ptr %2, align 8, !tbaa !19
  %4 = load i64, ptr %3, align 8, !tbaa !11
  %5 = lshr i64 %4, 1
  %6 = and i64 %5, 4294967295
  ret i64 %6
}

; Function Attrs: inlinehint nounwind uwtable
define internal i64 @rlw_get_literal_words(ptr noundef %0) #2 {
  %2 = alloca ptr, align 8
  store ptr %0, ptr %2, align 8, !tbaa !19
  %3 = load ptr, ptr %2, align 8, !tbaa !19
  %4 = load i64, ptr %3, align 8, !tbaa !11
  %5 = lshr i64 %4, 33
  ret i64 %5
}

; Function Attrs: nounwind uwtable
define internal i64 @add_empty_word(ptr noundef %0, i32 noundef %1) #0 {
  %3 = alloca i64, align 8
  %4 = alloca ptr, align 8
  %5 = alloca i32, align 4
  %6 = alloca i32, align 4
  %7 = alloca i64, align 8
  %8 = alloca i32, align 4
  store ptr %0, ptr %4, align 8, !tbaa !4
  store i32 %1, ptr %5, align 4, !tbaa !9
  call void @llvm.lifetime.start.p0(i64 4, ptr %6) #7
  %9 = load ptr, ptr %4, align 8, !tbaa !4
  %10 = getelementptr inbounds nuw %struct.ewah_bitmap, ptr %9, i32 0, i32 4
  %11 = load ptr, ptr %10, align 8, !tbaa !16
  %12 = call i64 @rlw_get_literal_words(ptr noundef %11)
  %13 = icmp eq i64 %12, 0
  %14 = zext i1 %13 to i32
  store i32 %14, ptr %6, align 4, !tbaa !9
  call void @llvm.lifetime.start.p0(i64 8, ptr %7) #7
  %15 = load ptr, ptr %4, align 8, !tbaa !4
  %16 = getelementptr inbounds nuw %struct.ewah_bitmap, ptr %15, i32 0, i32 4
  %17 = load ptr, ptr %16, align 8, !tbaa !16
  %18 = call i64 @rlw_get_running_len(ptr noundef %17)
  store i64 %18, ptr %7, align 8, !tbaa !11
  %19 = load i32, ptr %6, align 4, !tbaa !9
  %20 = icmp ne i32 %19, 0
  br i1 %20, label %21, label %29

21:                                               ; preds = %2
  %22 = load i64, ptr %7, align 8, !tbaa !11
  %23 = icmp eq i64 %22, 0
  br i1 %23, label %24, label %29

24:                                               ; preds = %21
  %25 = load ptr, ptr %4, align 8, !tbaa !4
  %26 = getelementptr inbounds nuw %struct.ewah_bitmap, ptr %25, i32 0, i32 4
  %27 = load ptr, ptr %26, align 8, !tbaa !16
  %28 = load i32, ptr %5, align 4, !tbaa !9
  call void @rlw_set_run_bit(ptr noundef %27, i32 noundef %28)
  br label %29

29:                                               ; preds = %24, %21, %2
  %30 = load i32, ptr %6, align 4, !tbaa !9
  %31 = icmp ne i32 %30, 0
  br i1 %31, label %32, label %48

32:                                               ; preds = %29
  %33 = load ptr, ptr %4, align 8, !tbaa !4
  %34 = getelementptr inbounds nuw %struct.ewah_bitmap, ptr %33, i32 0, i32 4
  %35 = load ptr, ptr %34, align 8, !tbaa !16
  %36 = call i32 @rlw_get_run_bit(ptr noundef %35)
  %37 = load i32, ptr %5, align 4, !tbaa !9
  %38 = icmp eq i32 %36, %37
  br i1 %38, label %39, label %48

39:                                               ; preds = %32
  %40 = load i64, ptr %7, align 8, !tbaa !11
  %41 = icmp ult i64 %40, 4294967295
  br i1 %41, label %42, label %48

42:                                               ; preds = %39
  %43 = load ptr, ptr %4, align 8, !tbaa !4
  %44 = getelementptr inbounds nuw %struct.ewah_bitmap, ptr %43, i32 0, i32 4
  %45 = load ptr, ptr %44, align 8, !tbaa !16
  %46 = load i64, ptr %7, align 8, !tbaa !11
  %47 = add i64 %46, 1
  call void @rlw_set_running_len(ptr noundef %45, i64 noundef %47)
  store i64 0, ptr %3, align 8
  store i32 1, ptr %8, align 4
  br label %57

48:                                               ; preds = %39, %32, %29
  %49 = load ptr, ptr %4, align 8, !tbaa !4
  call void @buffer_push_rlw(ptr noundef %49, i64 noundef 0)
  %50 = load ptr, ptr %4, align 8, !tbaa !4
  %51 = getelementptr inbounds nuw %struct.ewah_bitmap, ptr %50, i32 0, i32 4
  %52 = load ptr, ptr %51, align 8, !tbaa !16
  %53 = load i32, ptr %5, align 4, !tbaa !9
  call void @rlw_set_run_bit(ptr noundef %52, i32 noundef %53)
  %54 = load ptr, ptr %4, align 8, !tbaa !4
  %55 = getelementptr inbounds nuw %struct.ewah_bitmap, ptr %54, i32 0, i32 4
  %56 = load ptr, ptr %55, align 8, !tbaa !16
  call void @rlw_set_running_len(ptr noundef %56, i64 noundef 1)
  store i64 1, ptr %3, align 8
  store i32 1, ptr %8, align 4
  br label %57

57:                                               ; preds = %48, %42
  call void @llvm.lifetime.end.p0(i64 8, ptr %7) #7
  call void @llvm.lifetime.end.p0(i64 4, ptr %6) #7
  %58 = load i64, ptr %3, align 8
  ret i64 %58
}