; Function Attrs: nounwind uwtable
define internal fastcc range(i64 0, 2) i64 @add_empty_word(ptr noundef captures(none) %0, i32 noundef range(i32 0, 2) %1) unnamed_addr #0 {
  %3 = getelementptr inbounds nuw i8, ptr %0, i64 32
  %4 = load ptr, ptr %3, align 8, !tbaa !11
  %.val21 = load i64, ptr %4, align 8, !tbaa !12
  %5 = icmp ult i64 %.val21, 8589934592
  %6 = lshr i64 %.val21, 1
  %7 = and i64 %6, 4294967295
  %8 = icmp eq i64 %7, 0
  %or.cond = and i1 %5, %8
  br i1 %or.cond, label %.thread, label %10

.thread:                                          ; preds = %2
  %9 = and i64 %.val21, 8589934590
  %masksel.i = zext nneg i32 %1 to i64
  %storemerge.i = or disjoint i64 %9, %masksel.i
  store i64 %storemerge.i, ptr %4, align 8, !tbaa !12
  br label %11

10:                                               ; preds = %2
  br i1 %5, label %11, label %22

11:                                               ; preds = %.thread, %10
  %.val = phi i64 [ %storemerge.i, %.thread ], [ %.val21, %10 ]
  %12 = trunc i64 %.val to i32
  %13 = and i32 %12, 1
  %14 = icmp eq i32 %13, %1
  %15 = icmp ne i64 %7, 4294967295
  %or.cond3 = and i1 %15, %14
  br i1 %or.cond3, label %16, label %22

16:                                               ; preds = %11
  %17 = or i64 %.val, 8589934590
  %18 = shl nuw nsw i64 %7, 1
  %19 = add nuw nsw i64 %18, 2
  %20 = or i64 %19, -8589934591
  %21 = and i64 %17, %20
  store i64 %21, ptr %4, align 8, !tbaa !12
  br label %48

22:                                               ; preds = %11, %10
  %23 = getelementptr inbounds nuw i8, ptr %0, i64 8
  %24 = load i64, ptr %23, align 8, !tbaa !13
  %25 = add i64 %24, 1
  %26 = load ptr, ptr %0, align 8, !tbaa !14
  %27 = getelementptr inbounds nuw i8, ptr %0, i64 16
  %28 = load i64, ptr %27, align 8, !tbaa !15
  %29 = icmp ugt i64 %25, %28
  br i1 %29, label %30, label %buffer_push_rlw.exit

30:                                               ; preds = %22
  %31 = mul i64 %28, 3
  %32 = add i64 %31, 48
  %33 = lshr i64 %32, 1
  %..i.i.i = tail call i64 @llvm.umax.i64(i64 %33, i64 %25)
  store i64 %..i.i.i, ptr %27, align 8, !tbaa !15
  %34 = icmp ugt i64 %..i.i.i, 2305843009213693951
  br i1 %34, label %35, label %st_mult.exit.i.i.i

35:                                               ; preds = %30
  tail call void (ptr, ...) @die(ptr noundef nonnull @.str, i64 noundef 8, i64 noundef %..i.i.i) #11
  unreachable

st_mult.exit.i.i.i:                               ; preds = %30
  %36 = shl nuw i64 %..i.i.i, 3
  %37 = tail call ptr @xrealloc(ptr noundef %26, i64 noundef %36) #12
  store ptr %37, ptr %0, align 8, !tbaa !14
  %.pre.i.i = load i64, ptr %23, align 8, !tbaa !13
  %.pre4.i.i = add i64 %.pre.i.i, 1
  br label %buffer_push_rlw.exit

buffer_push_rlw.exit:                             ; preds = %22, %st_mult.exit.i.i.i
  %.pre-phi.i.i = phi i64 [ %25, %22 ], [ %.pre4.i.i, %st_mult.exit.i.i.i ]
  %38 = phi i64 [ %24, %22 ], [ %.pre.i.i, %st_mult.exit.i.i.i ]
  %39 = phi ptr [ %26, %22 ], [ %37, %st_mult.exit.i.i.i ]
  store i64 %.pre-phi.i.i, ptr %23, align 8, !tbaa !13
  %40 = getelementptr inbounds nuw i64, ptr %39, i64 %38
  store i64 0, ptr %40, align 8, !tbaa !12
  %41 = load i64, ptr %23, align 8, !tbaa !13
  %42 = getelementptr inbounds nuw i64, ptr %39, i64 %41
  %43 = getelementptr inbounds i8, ptr %42, i64 -8
  store ptr %43, ptr %3, align 8, !tbaa !11
  %44 = load i64, ptr %43, align 8, !tbaa !12
  %45 = and i64 %44, -8589934592
  %46 = or disjoint i32 %1, 2
  %storemerge.i24 = zext nneg i32 %46 to i64
  %47 = or disjoint i64 %45, %storemerge.i24
  store i64 %47, ptr %43, align 8, !tbaa !12
  br label %48

48:                                               ; preds = %buffer_push_rlw.exit, %16
  %.0 = phi i64 [ 0, %16 ], [ 1, %buffer_push_rlw.exit ]
  ret i64 %.0
}